target datalayout = "e-m:e-p270:32:32-p271:32:32-p272:64:64-i64:64-i128:128-f80:128-n8:16:32:64-S128"
target triple = "x86_64-pc-linux-gnu"

%struct.SDL_Rect = type { i32, i32, i32, i32 }
%struct.SDL_Window = type { i32, ptr, ptr, i32, i32, i32, i32, i32, i32, i32, i32, float, float, i32, i32, i64, i64, float, i8, i8, i32, i32, %struct.SDL_Rect, %struct.SDL_Rect, %struct.SDL_Rect, i8, i8, i8, %struct.SDL_DisplayMode, %struct.SDL_DisplayMode, %struct.SDL_HDROutputProperties, float, ptr, i8, i8, i8, i8, i8, i8, i8, i8, i8, i32, i32, i32, i32, %struct.SDL_Rect, i32, i8, %struct.SDL_Rect, i32, %struct.SDL_Rect, ptr, ptr, i32, float, i32, i32, ptr, ptr, ptr, ptr, ptr, ptr, ptr, ptr, ptr }
%struct.SDL_DisplayMode = type { i32, i32, i32, i32, float, float, i32, i32, ptr }
%struct.SDL_HDROutputProperties = type { float, float }

; Function Attrs: nounwind uwtable
define internal void @X11_SetKeyboardFocus(ptr noundef %0, i1 noundef zeroext %1) #0 {
  %3 = alloca ptr, align 8
  %4 = alloca i8, align 1
  %5 = alloca ptr, align 8
  store ptr %0, ptr %3, align 8
  %6 = zext i1 %1 to i8
  store i8 %6, ptr %4, align 1
  call void @llvm.lifetime.start.p0(i64 8, ptr %5) #7
  %7 = load ptr, ptr %3, align 8
  store ptr %7, ptr %5, align 8
  br label %8

8:                                                ; preds = %14, %2
  %9 = load ptr, ptr %5, align 8
  %10 = getelementptr inbounds nuw %struct.SDL_Window, ptr %9, i32 0, i32 15
  %11 = load i64, ptr %10, align 8
  %12 = and i64 %11, 786432
  %13 = icmp ne i64 %12, 0
  br i1 %13, label %14, label %18

14:                                               ; preds = %8
  %15 = load ptr, ptr %5, align 8
  %16 = getelementptr inbounds nuw %struct.SDL_Window, ptr %15, i32 0, i32 63
  %17 = load ptr, ptr %16, align 8
  store ptr %17, ptr %5, align 8
  br label %8, !llvm.loop !16

18:                                               ; preds = %8
  %19 = load ptr, ptr %3, align 8
  %20 = load ptr, ptr %5, align 8
  %21 = getelementptr inbounds nuw %struct.SDL_Window, ptr %20, i32 0, i32 60
  store ptr %19, ptr %21, align 8
  %22 = load i8, ptr %4, align 1, !range !5, !noundef !6
  %23 = trunc i8 %22 to i1
  br i1 %23, label %24, label %37

24:                                               ; preds = %18
  %25 = load ptr, ptr %3, align 8
  %26 = getelementptr inbounds nuw %struct.SDL_Window, ptr %25, i32 0, i32 34
  %27 = load i8, ptr %26, align 1, !range !5, !noundef !6
  %28 = trunc i8 %27 to i1
  br i1 %28, label %37, label %29

29:                                               ; preds = %24
  %30 = load ptr, ptr %3, align 8
  %31 = getelementptr inbounds nuw %struct.SDL_Window, ptr %30, i32 0, i32 40
  %32 = load i8, ptr %31, align 1, !range !5, !noundef !6
  %33 = trunc i8 %32 to i1
  br i1 %33, label %37, label %34

34:                                               ; preds = %29
  %35 = load ptr, ptr %3, align 8
  %36 = call zeroext i1 @SDL_SetKeyboardFocus(ptr noundef %35)
  br label %37

37:                                               ; preds = %34, %29, %24, %18
  call void @llvm.lifetime.end.p0(i64 8, ptr %5) #7
  ret void
}