; Function Attrs: nounwind uwtable
define internal fastcc void @X11_SetKeyboardFocus(ptr noundef %0, i1 noundef zeroext %1) unnamed_addr #0 {
  %3 = getelementptr inbounds nuw i8, ptr %0, i64 72
  %4 = load i64, ptr %3, align 8
  %5 = and i64 %4, 786432
  %.not8 = icmp eq i64 %5, 0
  br i1 %.not8, label %._crit_edge, label %.lr.ph

.lr.ph:                                           ; preds = %2, %.lr.ph
  %.09 = phi ptr [ %7, %.lr.ph ], [ %0, %2 ]
  %6 = getelementptr inbounds nuw i8, ptr %.09, i64 424
  %7 = load ptr, ptr %6, align 8
  %8 = getelementptr inbounds nuw i8, ptr %7, i64 72
  %9 = load i64, ptr %8, align 8
  %10 = and i64 %9, 786432
  %.not = icmp eq i64 %10, 0
  br i1 %.not, label %._crit_edge, label %.lr.ph, !llvm.loop !17

._crit_edge:                                      ; preds = %.lr.ph, %2
  %.0.lcssa = phi ptr [ %0, %2 ], [ %7, %.lr.ph ]
  %11 = getelementptr inbounds nuw i8, ptr %.0.lcssa, i64 400
  store ptr %0, ptr %11, align 8
  br i1 %1, label %12, label %22

12:                                               ; preds = %._crit_edge
  %13 = getelementptr inbounds nuw i8, ptr %0, i64 265
  %14 = load i8, ptr %13, align 1, !range !5, !noundef !6
  %15 = trunc nuw i8 %14 to i1
  br i1 %15, label %22, label %16

16:                                               ; preds = %12
  %17 = getelementptr inbounds nuw i8, ptr %0, i64 271
  %18 = load i8, ptr %17, align 1, !range !5, !noundef !6
  %19 = trunc nuw i8 %18 to i1
  br i1 %19, label %22, label %20

20:                                               ; preds = %16
  %21 = tail call zeroext i1 @SDL_SetKeyboardFocus(ptr noundef nonnull %0) #12
  br label %22

22:                                               ; preds = %20, %16, %12, %._crit_edge
  ret void
}